target datalayout = "e-m:e-p270:32:32-p271:32:32-p272:64:64-i64:64-i128:128-f80:128-n8:16:32:64-S128"
target triple = "x86_64-unknown-linux-gnu"

%"struct.node::AssertionInfo" = type { ptr, ptr, ptr }
%"class.v8::Local" = type { %"class.v8::LocalBase" }
%"class.v8::LocalBase" = type { %"class.v8::IndirectHandleBase" }
%"class.v8::IndirectHandleBase" = type { ptr }

@_ZZN4node11StringBytes9WriteUCS2EPN2v87IsolateEPcmNS1_5LocalINS1_6StringEEEiE4args = internal constant %"struct.node::AssertionInfo" { ptr @.str, ptr @.str.1, ptr @.str.2 }, align 8
@_ZZN4node11StringBytes9WriteUCS2EPN2v87IsolateEPcmNS1_5LocalINS1_6StringEEEiE4args_0 = internal constant %"struct.node::AssertionInfo" { ptr @.str.3, ptr @.str.4, ptr @.str.2 }, align 8
@_ZZN4node11StringBytes9WriteUCS2EPN2v87IsolateEPcmNS1_5LocalINS1_6StringEEEiE4args_1 = internal constant %"struct.node::AssertionInfo" { ptr @.str.5, ptr @.str.6, ptr @.str.2 }, align 8

; Function Attrs: mustprogress nounwind uwtable
define linkonce_odr dso_local noundef i64 @_ZN4node7RoundUpImEET_S1_S1_(i64 noundef %a, i64 noundef %b) #4 comdat {
entry:
  %a.addr = alloca i64, align 8
  %b.addr = alloca i64, align 8
  store i64 %a, ptr %a.addr, align 8
  store i64 %b, ptr %b.addr, align 8
  %0 = load i64, ptr %a.addr, align 8
  %1 = load i64, ptr %b.addr, align 8
  %rem = urem i64 %0, %1
  %cmp = icmp ne i64 %rem, 0
  br i1 %cmp, label %cond.true, label %cond.false

cond.true:                                        ; preds = %entry
  %2 = load i64, ptr %a.addr, align 8
  %3 = load i64, ptr %b.addr, align 8
  %add = add i64 %2, %3
  %4 = load i64, ptr %a.addr, align 8
  %5 = load i64, ptr %b.addr, align 8
  %rem1 = urem i64 %4, %5
  %sub = sub i64 %add, %rem1
  br label %cond.end

cond.false:                                       ; preds = %entry
  %6 = load i64, ptr %a.addr, align 8
  br label %cond.end

cond.end:                                         ; preds = %cond.false, %cond.true
  %cond = phi i64 [ %sub, %cond.true ], [ %6, %cond.false ]
  ret i64 %cond
}

; Function Attrs: mustprogress nounwind uwtable
define linkonce_odr dso_local noundef nonnull align 8 dereferenceable(8) ptr @_ZSt3minImERKT_S2_S2_(ptr noundef nonnull align 8 dereferenceable(8) %__a, ptr noundef nonnull align 8 dereferenceable(8) %__b) #4 comdat {
entry:
  %retval = alloca ptr, align 8
  %__a.addr = alloca ptr, align 8
  %__b.addr = alloca ptr, align 8
  store ptr %__a, ptr %__a.addr, align 8
  store ptr %__b, ptr %__b.addr, align 8
  %0 = load ptr, ptr %__b.addr, align 8
  %1 = load i64, ptr %0, align 8
  %2 = load ptr, ptr %__a.addr, align 8
  %3 = load i64, ptr %2, align 8
  %cmp = icmp ult i64 %1, %3
  br i1 %cmp, label %if.then, label %if.end

if.then:                                          ; preds = %entry
  %4 = load ptr, ptr %__b.addr, align 8
  store ptr %4, ptr %retval, align 8
  br label %return

if.end:                                           ; preds = %entry
  %5 = load ptr, ptr %__a.addr, align 8
  store ptr %5, ptr %retval, align 8
  br label %return

return:                                           ; preds = %if.end, %if.then
  %6 = load ptr, ptr %retval, align 8
  ret ptr %6
}

; Function Attrs: mustprogress nounwind uwtable
define linkonce_odr dso_local noundef ptr @_ZN4node7AlignUpItmEEPT_S2_T0_(ptr noundef %ptr, i64 noundef %alignment) #4 comdat {
entry:
  %ptr.addr = alloca ptr, align 8
  %alignment.addr = alloca i64, align 8
  store ptr %ptr, ptr %ptr.addr, align 8
  store i64 %alignment, ptr %alignment.addr, align 8
  %0 = load ptr, ptr %ptr.addr, align 8
  %1 = ptrtoint ptr %0 to i64
  %2 = load i64, ptr %alignment.addr, align 8
  %call = call noundef i64 @_ZN4node7RoundUpImEET_S1_S1_(i64 noundef %1, i64 noundef %2)
  %3 = inttoptr i64 %call to ptr
  ret ptr %3
}

; Function Attrs: mustprogress nounwind uwtable
define dso_local noundef i64 @_ZN4node11StringBytes9WriteUCS2EPN2v87IsolateEPcmNS1_5LocalINS1_6StringEEEi(ptr noundef %isolate, ptr noundef %buf, i64 noundef %buflen, ptr %str.coerce, i32 noundef %flags) #4 align 2 {
entry:
  %slot.addr.i85 = alloca ptr, align 8
  %slot.addr.i84 = alloca ptr, align 8
  %slot.addr.i83 = alloca ptr, align 8
  %slot.addr.i = alloca ptr, align 8
  %this.addr.i.i78 = alloca ptr, align 8
  %this.addr.i79 = alloca ptr, align 8
  %this.addr.i.i73 = alloca ptr, align 8
  %this.addr.i74 = alloca ptr, align 8
  %this.addr.i.i68 = alloca ptr, align 8
  %this.addr.i69 = alloca ptr, align 8
  %this.addr.i.i = alloca ptr, align 8
  %this.addr.i66 = alloca ptr, align 8
  %this.addr.i63 = alloca ptr, align 8
  %this.addr.i60 = alloca ptr, align 8
  %this.addr.i57 = alloca ptr, align 8
  %this.addr.i = alloca ptr, align 8
  %retval = alloca i64, align 8
  %str = alloca %"class.v8::Local", align 8
  %isolate.addr = alloca ptr, align 8
  %buf.addr = alloca ptr, align 8
  %buflen.addr = alloca i64, align 8
  %flags.addr = alloca i32, align 4
  %dst = alloca ptr, align 8
  %max_chars = alloca i64, align 8
  %aligned_dst = alloca ptr, align 8
  %nchars = alloca i64, align 8
  %ref.tmp = alloca i64, align 8
  %last = alloca i16, align 2
  %coerce.dive = getelementptr inbounds %"class.v8::Local", ptr %str, i32 0, i32 0
  %coerce.dive1 = getelementptr inbounds %"class.v8::LocalBase", ptr %coerce.dive, i32 0, i32 0
  %coerce.dive2 = getelementptr inbounds %"class.v8::IndirectHandleBase", ptr %coerce.dive1, i32 0, i32 0
  store ptr %str.coerce, ptr %coerce.dive2, align 8
  store ptr %isolate, ptr %isolate.addr, align 8
  store ptr %buf, ptr %buf.addr, align 8
  store i64 %buflen, ptr %buflen.addr, align 8
  store i32 %flags, ptr %flags.addr, align 4
  %0 = load ptr, ptr %buf.addr, align 8
  store ptr %0, ptr %dst, align 8
  %1 = load i64, ptr %buflen.addr, align 8
  %div = udiv i64 %1, 2
  store i64 %div, ptr %max_chars, align 8
  %2 = load i64, ptr %max_chars, align 8
  %cmp = icmp eq i64 %2, 0
  br i1 %cmp, label %if.then, label %if.end

if.then:                                          ; preds = %entry
  store i64 0, ptr %retval, align 8
  br label %return

if.end:                                           ; preds = %entry
  %3 = load ptr, ptr %dst, align 8
  %call = call noundef ptr @_ZN4node7AlignUpItmEEPT_S2_T0_(ptr noundef %3, i64 noundef 2)
  store ptr %call, ptr %aligned_dst, align 8
  %4 = load ptr, ptr %aligned_dst, align 8
  %5 = load ptr, ptr %dst, align 8
  %cmp3 = icmp eq ptr %4, %5
  br i1 %cmp3, label %if.then4, label %if.end8

if.then4:                                         ; preds = %if.end
  store ptr %str, ptr %this.addr.i63, align 8
  %this1.i64 = load ptr, ptr %this.addr.i63, align 8
  store ptr %this1.i64, ptr %this.addr.i66, align 8
  %this1.i67 = load ptr, ptr %this.addr.i66, align 8
  store ptr %this1.i67, ptr %this.addr.i.i, align 8
  %this1.i.i = load ptr, ptr %this.addr.i.i, align 8
  %6 = load ptr, ptr %this1.i.i, align 8
  store ptr %6, ptr %slot.addr.i85, align 8
  %7 = load ptr, ptr %slot.addr.i85, align 8
  %8 = load ptr, ptr %isolate.addr, align 8
  %9 = load ptr, ptr %dst, align 8
  %10 = load i64, ptr %max_chars, align 8
  %conv = trunc i64 %10 to i32
  %11 = load i32, ptr %flags.addr, align 4
  %call6 = call noundef i32 @_ZNK2v86String5WriteEPNS_7IsolateEPtiii(ptr noundef nonnull align 1 dereferenceable(1) %7, ptr noundef %8, ptr noundef %9, i32 noundef 0, i32 noundef %conv, i32 noundef %11)
  %conv7 = sext i32 %call6 to i64
  store i64 %conv7, ptr %nchars, align 8
  %12 = load i64, ptr %nchars, align 8
  %mul = mul i64 %12, 2
  store i64 %mul, ptr %retval, align 8
  br label %return

if.end8:                                          ; preds = %if.end
  br label %do.body

do.body:                                          ; preds = %if.end8
  %13 = load ptr, ptr %aligned_dst, align 8
  %14 = ptrtoint ptr %13 to i64
  %rem = urem i64 %14, 2
  %cmp9 = icmp eq i64 %rem, 0
  %lnot = xor i1 %cmp9, true
  %lnot10 = xor i1 %lnot, true
  %lnot11 = xor i1 %lnot10, true
  br i1 %lnot11, label %if.then13, label %if.end15

if.then13:                                        ; preds = %do.body
  br label %do.body14

do.body14:                                        ; preds = %if.then13
  call void @_ZN4node6AssertERKNS_13AssertionInfoE(ptr noundef nonnull align 8 dereferenceable(24) @_ZZN4node11StringBytes9WriteUCS2EPN2v87IsolateEPcmNS1_5LocalINS1_6StringEEEiE4args)
  call void @abort() #16
  unreachable

do.end:                                           ; No predecessors!
  br label %if.end15

if.end15:                                         ; preds = %do.end, %do.body
  br label %do.end16

do.end16:                                         ; preds = %if.end15
  store ptr %str, ptr %this.addr.i60, align 8
  %this1.i61 = load ptr, ptr %this.addr.i60, align 8
  store ptr %this1.i61, ptr %this.addr.i69, align 8
  %this1.i70 = load ptr, ptr %this.addr.i69, align 8
  store ptr %this1.i70, ptr %this.addr.i.i68, align 8
  %this1.i.i71 = load ptr, ptr %this.addr.i.i68, align 8
  %15 = load ptr, ptr %this1.i.i71, align 8
  store ptr %15, ptr %slot.addr.i84, align 8
  %16 = load ptr, ptr %slot.addr.i84, align 8
  %call18 = call noundef i32 @_ZNK2v86String6LengthEv(ptr noundef nonnull align 1 dereferenceable(1) %16)
  %conv19 = sext i32 %call18 to i64
  store i64 %conv19, ptr %ref.tmp, align 8
  %call20 = call noundef nonnull align 8 dereferenceable(8) ptr @_ZSt3minImERKT_S2_S2_(ptr noundef nonnull align 8 dereferenceable(8) %max_chars, ptr noundef nonnull align 8 dereferenceable(8) %ref.tmp)
  %17 = load i64, ptr %call20, align 8
  store i64 %17, ptr %max_chars, align 8
  %18 = load i64, ptr %max_chars, align 8
  %cmp21 = icmp eq i64 %18, 0
  br i1 %cmp21, label %if.then22, label %if.end23

if.then22:                                        ; preds = %do.end16
  store i64 0, ptr %retval, align 8
  br label %return

if.end23:                                         ; preds = %do.end16
  store ptr %str, ptr %this.addr.i57, align 8
  %this1.i58 = load ptr, ptr %this.addr.i57, align 8
  store ptr %this1.i58, ptr %this.addr.i74, align 8
  %this1.i75 = load ptr, ptr %this.addr.i74, align 8
  store ptr %this1.i75, ptr %this.addr.i.i73, align 8
  %this1.i.i76 = load ptr, ptr %this.addr.i.i73, align 8
  %19 = load ptr, ptr %this1.i.i76, align 8
  store ptr %19, ptr %slot.addr.i83, align 8
  %20 = load ptr, ptr %slot.addr.i83, align 8
  %21 = load ptr, ptr %isolate.addr, align 8
  %22 = load ptr, ptr %aligned_dst, align 8
  %23 = load i64, ptr %max_chars, align 8
  %sub = sub i64 %23, 1
  %conv25 = trunc i64 %sub to i32
  %24 = load i32, ptr %flags.addr, align 4
  %call26 = call noundef i32 @_ZNK2v86String5WriteEPNS_7IsolateEPtiii(ptr noundef nonnull align 1 dereferenceable(1) %20, ptr noundef %21, ptr noundef %22, i32 noundef 0, i32 noundef %conv25, i32 noundef %24)
  %conv27 = sext i32 %call26 to i64
  store i64 %conv27, ptr %nchars, align 8
  br label %do.body28

do.body28:                                        ; preds = %if.end23
  %25 = load i64, ptr %nchars, align 8
  %26 = load i64, ptr %max_chars, align 8
  %sub29 = sub i64 %26, 1
  %cmp30 = icmp eq i64 %25, %sub29
  %lnot31 = xor i1 %cmp30, true
  %lnot32 = xor i1 %lnot31, true
  %lnot33 = xor i1 %lnot32, true
  br i1 %lnot33, label %if.then35, label %if.end38

if.then35:                                        ; preds = %do.body28
  br label %do.body36

do.body36:                                        ; preds = %if.then35
  call void @_ZN4node6AssertERKNS_13AssertionInfoE(ptr noundef nonnull align 8 dereferenceable(24) @_ZZN4node11StringBytes9WriteUCS2EPN2v87IsolateEPcmNS1_5LocalINS1_6StringEEEiE4args_0)
  call void @abort() #16
  unreachable

do.end37:                                         ; No predecessors!
  br label %if.end38

if.end38:                                         ; preds = %do.end37, %do.body28
  br label %do.end39

do.end39:                                         ; preds = %if.end38
  %27 = load ptr, ptr %dst, align 8
  %28 = load ptr, ptr %aligned_dst, align 8
  %29 = load i64, ptr %nchars, align 8
  %mul40 = mul i64 %29, 2
  call void @llvm.memmove.p0.p0.i64(ptr align 2 %27, ptr align 2 %28, i64 %mul40, i1 false)
  br label %do.body41

do.body41:                                        ; preds = %do.end39
  store ptr %str, ptr %this.addr.i, align 8
  %this1.i = load ptr, ptr %this.addr.i, align 8
  store ptr %this1.i, ptr %this.addr.i79, align 8
  %this1.i80 = load ptr, ptr %this.addr.i79, align 8
  store ptr %this1.i80, ptr %this.addr.i.i78, align 8
  %this1.i.i81 = load ptr, ptr %this.addr.i.i78, align 8
  %30 = load ptr, ptr %this1.i.i81, align 8
  store ptr %30, ptr %slot.addr.i, align 8
  %31 = load ptr, ptr %slot.addr.i, align 8
  %32 = load ptr, ptr %isolate.addr, align 8
  %33 = load i64, ptr %nchars, align 8
  %conv43 = trunc i64 %33 to i32
  %34 = load i32, ptr %flags.addr, align 4
  %call44 = call noundef i32 @_ZNK2v86String5WriteEPNS_7IsolateEPtiii(ptr noundef nonnull align 1 dereferenceable(1) %31, ptr noundef %32, ptr noundef %last, i32 noundef %conv43, i32 noundef 1, i32 noundef %34)
  %cmp45 = icmp eq i32 %call44, 1
  %lnot46 = xor i1 %cmp45, true
  %lnot47 = xor i1 %lnot46, true
  %lnot48 = xor i1 %lnot47, true
  br i1 %lnot48, label %if.then50, label %if.end53

if.then50:                                        ; preds = %do.body41
  br label %do.body51

do.body51:                                        ; preds = %if.then50
  call void @_ZN4node6AssertERKNS_13AssertionInfoE(ptr noundef nonnull align 8 dereferenceable(24) @_ZZN4node11StringBytes9WriteUCS2EPN2v87IsolateEPcmNS1_5LocalINS1_6StringEEEiE4args_1)
  call void @abort() #16
  unreachable

do.end52:                                         ; No predecessors!
  br label %if.end53

if.end53:                                         ; preds = %do.end52, %do.body41
  br label %do.end54

do.end54:                                         ; preds = %if.end53
  %35 = load ptr, ptr %buf.addr, align 8
  %36 = load i64, ptr %nchars, align 8
  %mul55 = mul i64 %36, 2
  %add.ptr = getelementptr inbounds i8, ptr %35, i64 %mul55
  call void @llvm.memcpy.p0.p0.i64(ptr align 1 %add.ptr, ptr align 2 %last, i64 2, i1 false)
  %37 = load i64, ptr %nchars, align 8
  %inc = add i64 %37, 1
  store i64 %inc, ptr %nchars, align 8
  %38 = load i64, ptr %nchars, align 8
  %mul56 = mul i64 %38, 2
  store i64 %mul56, ptr %retval, align 8
  br label %return

return:                                           ; preds = %do.end54, %if.then22, %if.then4, %if.then
  %39 = load i64, ptr %retval, align 8
  ret i64 %39
}