; Function Attrs: mustprogress nounwind uwtable
define dso_local noundef i64 @_ZN4node11StringBytes9WriteUCS2EPN2v87IsolateEPcmNS1_5LocalINS1_6StringEEEi(ptr noundef %isolate, ptr noundef %buf, i64 noundef %buflen, ptr %str.coerce, i32 noundef %flags) local_unnamed_addr #3 align 2 {
entry:
  %last = alloca i16, align 2
  %div21 = lshr i64 %buflen, 1
  %cmp = icmp ult i64 %buflen, 2
  br i1 %cmp, label %return, label %if.end

if.end:                                           ; preds = %entry
  %0 = ptrtoint ptr %buf to i64
  %.biased = add i64 %0, 1
  %cond.i.i = and i64 %.biased, -2
  %1 = inttoptr i64 %cond.i.i to ptr
  %cmp3 = icmp eq ptr %1, %buf
  br i1 %cmp3, label %if.then4, label %do.end16

if.then4:                                         ; preds = %if.end
  %conv = trunc i64 %div21 to i32
  %call6 = tail call noundef i32 @_ZNK2v86String5WriteEPNS_7IsolateEPtiii(ptr noundef nonnull align 1 dereferenceable(1) %str.coerce, ptr noundef %isolate, ptr noundef %buf, i32 noundef 0, i32 noundef %conv, i32 noundef %flags) #19
  %conv7 = sext i32 %call6 to i64
  %mul = shl nsw i64 %conv7, 1
  br label %return

do.end16:                                         ; preds = %if.end
  %call18 = tail call noundef i32 @_ZNK2v86String6LengthEv(ptr noundef nonnull align 1 dereferenceable(1) %str.coerce) #19
  %conv19 = sext i32 %call18 to i64
  %.sroa.speculated = tail call i64 @llvm.umin.i64(i64 %div21, i64 %conv19)
  %cmp21 = icmp eq i64 %.sroa.speculated, 0
  br i1 %cmp21, label %return, label %if.end23

if.end23:                                         ; preds = %do.end16
  %2 = trunc i64 %.sroa.speculated to i32
  %conv25 = add i32 %2, -1
  %call26 = tail call noundef i32 @_ZNK2v86String5WriteEPNS_7IsolateEPtiii(ptr noundef nonnull align 1 dereferenceable(1) %str.coerce, ptr noundef %isolate, ptr noundef %1, i32 noundef 0, i32 noundef %conv25, i32 noundef %flags) #19
  %conv27 = sext i32 %call26 to i64
  %sub29 = add nsw i64 %.sroa.speculated, -1
  %cmp30.not = icmp eq i64 %sub29, %conv27
  br i1 %cmp30.not, label %do.end39, label %do.body36

do.body36:                                        ; preds = %if.end23
  tail call void @_ZN4node6AssertERKNS_13AssertionInfoE(ptr noundef nonnull align 8 dereferenceable(24) @_ZZN4node11StringBytes9WriteUCS2EPN2v87IsolateEPcmNS1_5LocalINS1_6StringEEEiE4args_0) #19
  tail call void @abort() #20
  unreachable

do.end39:                                         ; preds = %if.end23
  %mul40 = shl nuw nsw i64 %conv27, 1
  tail call void @llvm.memmove.p0.p0.i64(ptr align 2 %buf, ptr align 2 %1, i64 %mul40, i1 false)
  %call44 = call noundef i32 @_ZNK2v86String5WriteEPNS_7IsolateEPtiii(ptr noundef nonnull align 1 dereferenceable(1) %str.coerce, ptr noundef %isolate, ptr noundef nonnull %last, i32 noundef %call26, i32 noundef 1, i32 noundef %flags) #19
  %cmp45.not = icmp eq i32 %call44, 1
  br i1 %cmp45.not, label %do.end54, label %do.body51

do.body51:                                        ; preds = %do.end39
  call void @_ZN4node6AssertERKNS_13AssertionInfoE(ptr noundef nonnull align 8 dereferenceable(24) @_ZZN4node11StringBytes9WriteUCS2EPN2v87IsolateEPcmNS1_5LocalINS1_6StringEEEiE4args_1) #19
  call void @abort() #20
  unreachable

do.end54:                                         ; preds = %do.end39
  %add.ptr = getelementptr inbounds i8, ptr %buf, i64 %mul40
  %3 = load i16, ptr %last, align 2
  store i16 %3, ptr %add.ptr, align 1
  %mul56 = add nuw nsw i64 %mul40, 2
  br label %return

return:                                           ; preds = %do.end16, %entry, %do.end54, %if.then4
  %retval.0 = phi i64 [ %mul, %if.then4 ], [ %mul56, %do.end54 ], [ 0, %entry ], [ 0, %do.end16 ]
  ret i64 %retval.0
}